; Function Attrs: mustprogress nofree norecurse nosync nounwind willreturn memory(read, inaccessiblemem: none) uwtable
define hidden noundef i32 @_ZNK9used_vars12get_num_varsEv(ptr nocapture noundef nonnull readonly align 8 dereferenceable(48) %this) local_unnamed_addr #4 align 2 {
entry:
  %0 = load ptr, ptr %this, align 8
  %cmp.i = icmp eq ptr %0, null
  br i1 %cmp.i, label %for.end, label %_ZNK6vectorIP4sortLb0EjE4sizeEv.exit

_ZNK6vectorIP4sortLb0EjE4sizeEv.exit:             ; preds = %entry
  %arrayidx.i = getelementptr inbounds i8, ptr %0, i64 -4
  %1 = load i32, ptr %arrayidx.i, align 4
  %cmp5.not = icmp eq i32 %1, 0
  br i1 %cmp5.not, label %for.end, label %for.body.preheader

for.body.preheader:                               ; preds = %_ZNK6vectorIP4sortLb0EjE4sizeEv.exit
  %wide.trip.count = zext i32 %1 to i64
  br label %for.body

for.body:                                         ; preds = %for.body.preheader, %for.body
  %indvars.iv = phi i64 [ 0, %for.body.preheader ], [ %indvars.iv.next, %for.body ]
  %r.06 = phi i32 [ 0, %for.body.preheader ], [ %spec.select, %for.body ]
  %arrayidx.i4 = getelementptr inbounds ptr, ptr %0, i64 %indvars.iv
  %2 = load ptr, ptr %arrayidx.i4, align 8
  %tobool.not = icmp ne ptr %2, null
  %inc = zext i1 %tobool.not to i32
  %spec.select = add i32 %r.06, %inc
  %indvars.iv.next = add nuw nsw i64 %indvars.iv, 1
  %exitcond.not = icmp eq i64 %indvars.iv.next, %wide.trip.count
  br i1 %exitcond.not, label %for.end, label %for.body, !llvm.loop !13

for.end:                                          ; preds = %for.body, %entry, %_ZNK6vectorIP4sortLb0EjE4sizeEv.exit
  %r.0.lcssa = phi i32 [ 0, %_ZNK6vectorIP4sortLb0EjE4sizeEv.exit ], [ 0, %entry ], [ %spec.select, %for.body ]
  ret i32 %r.0.lcssa
}